; Function Attrs: nounwind uwtable
define ptr @l_Lake_instMonadStoreStateRefT_x27RBArrayOfMonadLiftTSTOfMonad___rarg___lambda__2(ptr noundef %0, ptr noundef %1, ptr noundef %2, ptr noundef %3, ptr noundef %4) #0 {
  %6 = getelementptr inbounds nuw i8, ptr %0, i64 16
  %7 = load ptr, ptr %6, align 8, !tbaa !9
  %8 = ptrtoint ptr %7 to i64
  %9 = and i64 %8, 1
  %.not = icmp eq i64 %9, 0
  br i1 %.not, label %10, label %lean_inc.exit

10:                                               ; preds = %5
  %.val.i = load i32, ptr %7, align 4, !tbaa !4
  %11 = icmp sgt i32 %.val.i, 0
  br i1 %11, label %12, label %14, !prof !11

12:                                               ; preds = %10
  %13 = add nuw i32 %.val.i, 1
  store i32 %13, ptr %7, align 4, !tbaa !4
  br label %lean_inc.exit

14:                                               ; preds = %10
  %.not.i = icmp eq i32 %.val.i, 0
  br i1 %.not.i, label %lean_inc.exit, label %15

15:                                               ; preds = %14
  tail call void @lean_inc_ref_cold(ptr noundef nonnull %7) #3
  br label %lean_inc.exit

lean_inc.exit:                                    ; preds = %15, %14, %12, %5
  tail call void @lean_inc_heartbeat() #3
  %16 = tail call noalias ptr @mi_malloc_small(i64 noundef 48) #3
  %17 = icmp eq ptr %16, null
  br i1 %17, label %18, label %lean_alloc_closure.exit

18:                                               ; preds = %lean_inc.exit
  tail call void @lean_internal_panic_out_of_memory() #4
  unreachable

lean_alloc_closure.exit:                          ; preds = %lean_inc.exit
  %19 = getelementptr inbounds nuw i8, ptr %16, i64 4
  store i32 1, ptr %16, align 4, !tbaa !4
  store i32 -184549328, ptr %19, align 4
  %20 = getelementptr inbounds nuw i8, ptr %16, i64 8
  store ptr @l_ST_Prim_Ref_get___boxed, ptr %20, align 8, !tbaa !9
  %21 = getelementptr inbounds nuw i8, ptr %16, i64 16
  store i16 4, ptr %21, align 8, !tbaa !12
  %22 = getelementptr inbounds nuw i8, ptr %16, i64 18
  store i16 3, ptr %22, align 2, !tbaa !12
  %23 = getelementptr inbounds nuw i8, ptr %16, i64 24
  store ptr inttoptr (i64 1 to ptr), ptr %23, align 8, !tbaa !9
  %24 = getelementptr inbounds nuw i8, ptr %16, i64 32
  store ptr inttoptr (i64 1 to ptr), ptr %24, align 8, !tbaa !9
  %25 = getelementptr inbounds nuw i8, ptr %16, i64 40
  store ptr %4, ptr %25, align 8, !tbaa !9
  %26 = tail call ptr @lean_apply_2(ptr noundef %1, ptr noundef nonnull inttoptr (i64 1 to ptr), ptr noundef nonnull %16) #3
  tail call void @lean_inc_heartbeat() #3
  %27 = tail call noalias ptr @mi_malloc_small(i64 noundef 48) #3
  %28 = icmp eq ptr %27, null
  br i1 %28, label %29, label %lean_alloc_closure.exit18

29:                                               ; preds = %lean_alloc_closure.exit
  tail call void @lean_internal_panic_out_of_memory() #4
  unreachable

lean_alloc_closure.exit18:                        ; preds = %lean_alloc_closure.exit
  %30 = getelementptr inbounds nuw i8, ptr %27, i64 4
  store i32 1, ptr %27, align 4, !tbaa !4
  store i32 -184549328, ptr %30, align 4
  %31 = getelementptr inbounds nuw i8, ptr %27, i64 8
  store ptr @l_Lake_instMonadStoreStateRefT_x27RBArrayOfMonadLiftTSTOfMonad___rarg___lambda__1, ptr %31, align 8, !tbaa !9
  %32 = getelementptr inbounds nuw i8, ptr %27, i64 16
  store i16 4, ptr %32, align 8, !tbaa !12
  %33 = getelementptr inbounds nuw i8, ptr %27, i64 18
  store i16 3, ptr %33, align 2, !tbaa !12
  %34 = getelementptr inbounds nuw i8, ptr %27, i64 24
  store ptr %0, ptr %34, align 8, !tbaa !9
  %35 = getelementptr inbounds nuw i8, ptr %27, i64 32
  store ptr %2, ptr %35, align 8, !tbaa !9
  %36 = getelementptr inbounds nuw i8, ptr %27, i64 40
  store ptr %3, ptr %36, align 8, !tbaa !9
  %37 = tail call ptr @lean_apply_4(ptr noundef %7, ptr noundef nonnull inttoptr (i64 1 to ptr), ptr noundef nonnull inttoptr (i64 1 to ptr), ptr noundef %26, ptr noundef nonnull %27) #3
  ret ptr %37
}